; Function Attrs: mustprogress uwtable
define void @_ZN3g2o17strExpandFilenameERKNSt7__cxx1112basic_stringIcSt11char_traitsIcESaIcEEE(ptr dead_on_unwind noalias nonnull writable sret(%"class.std::__cxx11::basic_string") align 8 %0, ptr noundef nonnull align 8 dereferenceable(32) %1) local_unnamed_addr #3 personality ptr @__gxx_personality_v0 {
  %3 = alloca %struct.wordexp_t, align 8
  tail call void @_ZNSt7__cxx1112basic_stringIcSt11char_traitsIcESaIcEEC1ERKS4_(ptr noundef nonnull align 8 dereferenceable(32) %0, ptr noundef nonnull align 8 dereferenceable(32) %1)
  %4 = tail call noundef ptr @_ZNKSt7__cxx1112basic_stringIcSt11char_traitsIcESaIcEE5c_strEv(ptr noundef nonnull align 8 dereferenceable(32) %1) #16
  %5 = invoke i32 @wordexp(ptr noundef %4, ptr noundef nonnull %3, i32 noundef 0)
          to label %6 unwind label %13

6:                                                ; preds = %2
  %7 = load i64, ptr %3, align 8
  %.not = icmp eq i64 %7, 0
  br i1 %.not, label %15, label %8

8:                                                ; preds = %6
  %9 = getelementptr inbounds nuw i8, ptr %3, i64 8
  %10 = load ptr, ptr %9, align 8
  %11 = load ptr, ptr %10, align 8
  %12 = invoke noundef nonnull align 8 dereferenceable(32) ptr @_ZNSt7__cxx1112basic_stringIcSt11char_traitsIcESaIcEEaSEPKc(ptr noundef nonnull align 8 dereferenceable(32) %0, ptr noundef %11)
          to label %15 unwind label %13

13:                                               ; preds = %8, %2
  %14 = landingpad { ptr, i32 }
          cleanup
  call void @_ZNSt7__cxx1112basic_stringIcSt11char_traitsIcESaIcEED1Ev(ptr noundef nonnull align 8 dereferenceable(32) %0) #16
  resume { ptr, i32 } %14

15:                                               ; preds = %8, %6
  call void @wordfree(ptr noundef nonnull %3) #16
  ret void
}